target datalayout = "e-m:e-p270:32:32-p271:32:32-p272:64:64-i64:64-i128:128-f80:128-n8:16:32:64-S128"
target triple = "x86_64-pc-linux-gnu"

%struct.FunctionCallInfoBaseData = type { ptr, ptr, ptr, i32, i8, i16, [0 x %struct.NullableDatum] }
%struct.NullableDatum = type { i64, i8 }
%struct.GistInetKey = type { i8, i8, i8, i8, [16 x i8] }

; Function Attrs: inlinehint nounwind uwtable
define internal i64 @PointerGetDatum(ptr noundef %0) #2 {
  %2 = alloca ptr, align 8
  store ptr %0, ptr %2, align 8
  %3 = load ptr, ptr %2, align 8
  %4 = ptrtoint ptr %3 to i64
  ret i64 %4
}

; Function Attrs: inlinehint nounwind uwtable
define internal ptr @DatumGetPointer(i64 noundef %0) #2 {
  %2 = alloca i64, align 8
  store i64 %0, ptr %2, align 8
  %3 = load i64, ptr %2, align 8
  %4 = inttoptr i64 %3 to ptr
  ret ptr %4
}

; Function Attrs: nounwind uwtable
define dso_local i64 @inet_gist_same(ptr noundef %0) #0 {
  %2 = alloca ptr, align 8
  %3 = alloca ptr, align 8
  %4 = alloca ptr, align 8
  %5 = alloca ptr, align 8
  store ptr %0, ptr %2, align 8
  call void @llvm.lifetime.start.p0(i64 8, ptr %3) #7
  %6 = load ptr, ptr %2, align 8
  %7 = getelementptr inbounds nuw %struct.FunctionCallInfoBaseData, ptr %6, i32 0, i32 6
  %8 = getelementptr inbounds [0 x %struct.NullableDatum], ptr %7, i64 0, i64 0
  %9 = getelementptr inbounds nuw %struct.NullableDatum, ptr %8, i32 0, i32 0
  %10 = load i64, ptr %9, align 8
  %11 = call ptr @DatumGetPointer(i64 noundef %10)
  store ptr %11, ptr %3, align 8
  call void @llvm.lifetime.start.p0(i64 8, ptr %4) #7
  %12 = load ptr, ptr %2, align 8
  %13 = getelementptr inbounds nuw %struct.FunctionCallInfoBaseData, ptr %12, i32 0, i32 6
  %14 = getelementptr inbounds [0 x %struct.NullableDatum], ptr %13, i64 0, i64 1
  %15 = getelementptr inbounds nuw %struct.NullableDatum, ptr %14, i32 0, i32 0
  %16 = load i64, ptr %15, align 8
  %17 = call ptr @DatumGetPointer(i64 noundef %16)
  store ptr %17, ptr %4, align 8
  call void @llvm.lifetime.start.p0(i64 8, ptr %5) #7
  %18 = load ptr, ptr %2, align 8
  %19 = getelementptr inbounds nuw %struct.FunctionCallInfoBaseData, ptr %18, i32 0, i32 6
  %20 = getelementptr inbounds [0 x %struct.NullableDatum], ptr %19, i64 0, i64 2
  %21 = getelementptr inbounds nuw %struct.NullableDatum, ptr %20, i32 0, i32 0
  %22 = load i64, ptr %21, align 8
  %23 = call ptr @DatumGetPointer(i64 noundef %22)
  store ptr %23, ptr %5, align 8
  %24 = load ptr, ptr %3, align 8
  %25 = getelementptr inbounds nuw %struct.GistInetKey, ptr %24, i32 0, i32 1
  %26 = load i8, ptr %25, align 1
  %27 = zext i8 %26 to i32
  %28 = load ptr, ptr %4, align 8
  %29 = getelementptr inbounds nuw %struct.GistInetKey, ptr %28, i32 0, i32 1
  %30 = load i8, ptr %29, align 1
  %31 = zext i8 %30 to i32
  %32 = icmp eq i32 %27, %31
  br i1 %32, label %33, label %69

33:                                               ; preds = %1
  %34 = load ptr, ptr %3, align 8
  %35 = getelementptr inbounds nuw %struct.GistInetKey, ptr %34, i32 0, i32 2
  %36 = load i8, ptr %35, align 1
  %37 = zext i8 %36 to i32
  %38 = load ptr, ptr %4, align 8
  %39 = getelementptr inbounds nuw %struct.GistInetKey, ptr %38, i32 0, i32 2
  %40 = load i8, ptr %39, align 1
  %41 = zext i8 %40 to i32
  %42 = icmp eq i32 %37, %41
  br i1 %42, label %43, label %69

43:                                               ; preds = %33
  %44 = load ptr, ptr %3, align 8
  %45 = getelementptr inbounds nuw %struct.GistInetKey, ptr %44, i32 0, i32 3
  %46 = load i8, ptr %45, align 1
  %47 = zext i8 %46 to i32
  %48 = load ptr, ptr %4, align 8
  %49 = getelementptr inbounds nuw %struct.GistInetKey, ptr %48, i32 0, i32 3
  %50 = load i8, ptr %49, align 1
  %51 = zext i8 %50 to i32
  %52 = icmp eq i32 %47, %51
  br i1 %52, label %53, label %69

53:                                               ; preds = %43
  %54 = load ptr, ptr %3, align 8
  %55 = getelementptr inbounds nuw %struct.GistInetKey, ptr %54, i32 0, i32 4
  %56 = getelementptr inbounds [16 x i8], ptr %55, i64 0, i64 0
  %57 = load ptr, ptr %4, align 8
  %58 = getelementptr inbounds nuw %struct.GistInetKey, ptr %57, i32 0, i32 4
  %59 = getelementptr inbounds [16 x i8], ptr %58, i64 0, i64 0
  %60 = load ptr, ptr %3, align 8
  %61 = getelementptr inbounds nuw %struct.GistInetKey, ptr %60, i32 0, i32 1
  %62 = load i8, ptr %61, align 1
  %63 = zext i8 %62 to i32
  %64 = icmp eq i32 %63, 3
  %65 = select i1 %64, i32 16, i32 4
  %66 = sext i32 %65 to i64
  %67 = call i32 @memcmp(ptr noundef %56, ptr noundef %59, i64 noundef %66) #9
  %68 = icmp eq i32 %67, 0
  br label %69

69:                                               ; preds = %53, %43, %33, %1
  %70 = phi i1 [ false, %43 ], [ false, %33 ], [ false, %1 ], [ %68, %53 ]
  %71 = load ptr, ptr %5, align 8
  %72 = zext i1 %70 to i8
  store i8 %72, ptr %71, align 1
  %73 = load ptr, ptr %5, align 8
  %74 = call i64 @PointerGetDatum(ptr noundef %73)
  call void @llvm.lifetime.end.p0(i64 8, ptr %5) #7
  call void @llvm.lifetime.end.p0(i64 8, ptr %4) #7
  call void @llvm.lifetime.end.p0(i64 8, ptr %3) #7
  ret i64 %74
}