; Function Attrs: mustprogress nofree nounwind willreturn memory(readwrite, inaccessiblemem: none) uwtable
define dso_local i64 @inet_gist_same(ptr noundef readonly captures(none) %0) local_unnamed_addr #4 {
  %2 = getelementptr inbounds nuw i8, ptr %0, i64 32
  %3 = load i64, ptr %2, align 8
  %4 = inttoptr i64 %3 to ptr
  %5 = getelementptr inbounds nuw i8, ptr %0, i64 48
  %6 = load i64, ptr %5, align 8
  %7 = inttoptr i64 %6 to ptr
  %8 = getelementptr inbounds nuw i8, ptr %0, i64 64
  %9 = load i64, ptr %8, align 8
  %10 = getelementptr inbounds nuw i8, ptr %4, i64 1
  %11 = load i8, ptr %10, align 1
  %12 = getelementptr inbounds nuw i8, ptr %7, i64 1
  %13 = load i8, ptr %12, align 1
  %14 = icmp eq i8 %11, %13
  br i1 %14, label %15, label %34

15:                                               ; preds = %1
  %16 = getelementptr inbounds nuw i8, ptr %4, i64 2
  %17 = load i8, ptr %16, align 1
  %18 = getelementptr inbounds nuw i8, ptr %7, i64 2
  %19 = load i8, ptr %18, align 1
  %20 = icmp eq i8 %17, %19
  br i1 %20, label %21, label %34

21:                                               ; preds = %15
  %22 = getelementptr inbounds nuw i8, ptr %4, i64 3
  %23 = load i8, ptr %22, align 1
  %24 = getelementptr inbounds nuw i8, ptr %7, i64 3
  %25 = load i8, ptr %24, align 1
  %26 = icmp eq i8 %23, %25
  br i1 %26, label %27, label %34

27:                                               ; preds = %21
  %28 = getelementptr inbounds nuw i8, ptr %4, i64 4
  %29 = getelementptr inbounds nuw i8, ptr %7, i64 4
  %30 = icmp eq i8 %11, 3
  %31 = select i1 %30, i64 16, i64 4
  %bcmp = tail call i32 @bcmp(ptr noundef nonnull dereferenceable(4) %28, ptr noundef nonnull dereferenceable(4) %29, i64 %31)
  %32 = icmp eq i32 %bcmp, 0
  %33 = zext i1 %32 to i8
  br label %34

34:                                               ; preds = %27, %21, %15, %1
  %35 = phi i8 [ 0, %21 ], [ 0, %15 ], [ 0, %1 ], [ %33, %27 ]
  %36 = inttoptr i64 %9 to ptr
  store i8 %35, ptr %36, align 1
  ret i64 %9
}